target datalayout = "e-m:e-p270:32:32-p271:32:32-p272:64:64-i64:64-i128:128-f80:128-n8:16:32:64-S128"
target triple = "x86_64-pc-linux-gnu"

%struct.LimitedRelativeVectorCallStruct = type { ptr }

; Function Attrs: nounwind uwtable
define internal ptr @LimitedRelativeVectorCallClass_new(ptr noundef %0, ptr noundef %1, ptr noundef %2) #0 {
  %4 = alloca ptr, align 8
  %5 = alloca ptr, align 8
  %6 = alloca ptr, align 8
  %7 = alloca ptr, align 8
  %8 = alloca ptr, align 8
  %9 = alloca i32, align 4
  %10 = alloca ptr, align 8
  store ptr %0, ptr %5, align 8, !tbaa !8
  store ptr %1, ptr %6, align 8, !tbaa !8
  store ptr %2, ptr %7, align 8, !tbaa !8
  call void @llvm.lifetime.start.p0(i64 8, ptr %8) #5
  %11 = load ptr, ptr %5, align 8, !tbaa !8
  %12 = call ptr @PyType_GetSlot(ptr noundef %11, i32 noundef 47)
  %13 = load ptr, ptr %5, align 8, !tbaa !8
  %14 = call ptr %12(ptr noundef %13, i64 noundef 0)
  store ptr %14, ptr %8, align 8, !tbaa !3
  %15 = load ptr, ptr %8, align 8, !tbaa !3
  %16 = icmp ne ptr %15, null
  br i1 %16, label %18, label %17

17:                                               ; preds = %3
  store ptr null, ptr %4, align 8
  store i32 1, ptr %9, align 4
  br label %25

18:                                               ; preds = %3
  call void @llvm.lifetime.start.p0(i64 8, ptr %10) #5
  %19 = load ptr, ptr %8, align 8, !tbaa !3
  %20 = load ptr, ptr %5, align 8, !tbaa !8
  %21 = call ptr @PyObject_GetTypeData(ptr noundef %19, ptr noundef %20)
  store ptr %21, ptr %10, align 8, !tbaa !10
  %22 = load ptr, ptr %10, align 8, !tbaa !10
  %23 = getelementptr inbounds nuw %struct.LimitedRelativeVectorCallStruct, ptr %22, i32 0, i32 0
  store ptr @LimitedVectorCallClass_vectorcall, ptr %23, align 8, !tbaa !15
  %24 = load ptr, ptr %8, align 8, !tbaa !3
  store ptr %24, ptr %4, align 8
  store i32 1, ptr %9, align 4
  call void @llvm.lifetime.end.p0(i64 8, ptr %10) #5
  br label %25

25:                                               ; preds = %18, %17
  call void @llvm.lifetime.end.p0(i64 8, ptr %8) #5
  %26 = load ptr, ptr %4, align 8
  ret ptr %26
}