; Function Attrs: nounwind uwtable
define internal ptr @LimitedRelativeVectorCallClass_new(ptr noundef %0, ptr readnone captures(none) %1, ptr readnone captures(none) %2) #0 {
  %4 = tail call ptr @PyType_GetSlot(ptr noundef %0, i32 noundef 47) #4
  %5 = tail call ptr %4(ptr noundef %0, i64 noundef 0) #4
  %.not = icmp eq ptr %5, null
  br i1 %.not, label %8, label %6

6:                                                ; preds = %3
  %7 = tail call ptr @PyObject_GetTypeData(ptr noundef nonnull %5, ptr noundef %0) #4
  store ptr @LimitedVectorCallClass_vectorcall, ptr %7, align 8, !tbaa !9
  br label %8

8:                                                ; preds = %3, %6
  ret ptr %5
}